target datalayout = "e-m:e-p270:32:32-p271:32:32-p272:64:64-i64:64-i128:128-f80:128-n8:16:32:64-S128"
target triple = "x86_64-pc-linux-gnu"

%"class.duckdb_re2::PODArray.11" = type { %"class.std::unique_ptr.12" }
%"class.std::unique_ptr.12" = type { %"struct.std::__uniq_ptr_data.13" }
%"struct.std::__uniq_ptr_data.13" = type { %"class.std::__uniq_ptr_impl.14" }
%"class.std::__uniq_ptr_impl.14" = type { %"class.std::tuple.15" }
%"class.std::tuple.15" = type { %"struct.std::_Tuple_impl.16" }
%"struct.std::_Tuple_impl.16" = type { %"struct.std::_Tuple_impl.17", %"struct.std::_Head_base.19" }
%"struct.std::_Tuple_impl.17" = type { %"struct.std::_Head_base.18" }
%"struct.std::_Head_base.18" = type { %"struct.duckdb_re2::PODArray<duckdb_re2::NFA::AddState>::Deleter" }
%"struct.duckdb_re2::PODArray<duckdb_re2::NFA::AddState>::Deleter" = type { i32 }
%"struct.std::_Head_base.19" = type { ptr }
%"class.duckdb_re2::NFA" = type <{ ptr, i32, i32, i8, i8, [6 x i8], ptr, ptr, %"class.duckdb_re2::SparseArray", %"class.duckdb_re2::SparseArray", %"class.duckdb_re2::PODArray.11", %"class.std::deque", ptr, ptr, i8, [7 x i8] }>
%"class.duckdb_re2::SparseArray" = type { i32, %"class.duckdb_re2::PODArray", %"class.duckdb_re2::PODArray.2" }
%"class.duckdb_re2::PODArray" = type { %"class.std::unique_ptr" }
%"class.std::unique_ptr" = type { %"struct.std::__uniq_ptr_data" }
%"struct.std::__uniq_ptr_data" = type { %"class.std::__uniq_ptr_impl" }
%"class.std::__uniq_ptr_impl" = type { %"class.std::tuple" }
%"class.std::tuple" = type { %"struct.std::_Tuple_impl" }
%"struct.std::_Tuple_impl" = type { %"struct.std::_Tuple_impl.0", %"struct.std::_Head_base.1" }
%"struct.std::_Tuple_impl.0" = type { %"struct.std::_Head_base" }
%"struct.std::_Head_base" = type { %"struct.duckdb_re2::PODArray<int>::Deleter" }
%"struct.duckdb_re2::PODArray<int>::Deleter" = type { i32 }
%"struct.std::_Head_base.1" = type { ptr }
%"class.duckdb_re2::PODArray.2" = type { %"class.std::unique_ptr.3" }
%"class.std::unique_ptr.3" = type { %"struct.std::__uniq_ptr_data.4" }
%"struct.std::__uniq_ptr_data.4" = type { %"class.std::__uniq_ptr_impl.5" }
%"class.std::__uniq_ptr_impl.5" = type { %"class.std::tuple.6" }
%"class.std::tuple.6" = type { %"struct.std::_Tuple_impl.7" }
%"struct.std::_Tuple_impl.7" = type { %"struct.std::_Tuple_impl.8", %"struct.std::_Head_base.10" }
%"struct.std::_Tuple_impl.8" = type { %"struct.std::_Head_base.9" }
%"struct.std::_Head_base.9" = type { %"struct.duckdb_re2::PODArray<duckdb_re2::SparseArray<duckdb_re2::NFA::Thread *>::IndexValue>::Deleter" }
%"struct.duckdb_re2::PODArray<duckdb_re2::SparseArray<duckdb_re2::NFA::Thread *>::IndexValue>::Deleter" = type { i32 }
%"struct.std::_Head_base.10" = type { ptr }
%"class.std::deque" = type { %"class.std::_Deque_base" }
%"class.std::_Deque_base" = type { %"struct.std::_Deque_base<duckdb_re2::NFA::Thread, std::allocator<duckdb_re2::NFA::Thread>>::_Deque_impl" }
%"struct.std::_Deque_base<duckdb_re2::NFA::Thread, std::allocator<duckdb_re2::NFA::Thread>>::_Deque_impl" = type { %"struct.std::_Deque_base<duckdb_re2::NFA::Thread, std::allocator<duckdb_re2::NFA::Thread>>::_Deque_impl_data" }
%"struct.std::_Deque_base<duckdb_re2::NFA::Thread, std::allocator<duckdb_re2::NFA::Thread>>::_Deque_impl_data" = type { ptr, i64, %"struct.std::_Deque_iterator", %"struct.std::_Deque_iterator" }
%"struct.std::_Deque_iterator" = type { ptr, ptr, ptr, ptr }
%"class.duckdb_re2::StringPiece" = type { ptr, i64 }

@_ZN10duckdb_re23NFAC1EPNS_4ProgE = hidden unnamed_addr alias void (ptr, ptr), ptr @_ZN10duckdb_re23NFAC2EPNS_4ProgE
@_ZN10duckdb_re23NFAD1Ev = hidden unnamed_addr alias void (ptr), ptr @_ZN10duckdb_re23NFAD2Ev

; Function Attrs: mustprogress nounwind uwtable
define linkonce_odr hidden noundef i64 @_ZNK10duckdb_re211StringPiece4sizeEv(ptr noundef nonnull align 8 dereferenceable(16) %0) #1 comdat align 2 {
  %2 = alloca ptr, align 8
  store ptr %0, ptr %2, align 8, !tbaa !123
  %3 = load ptr, ptr %2, align 8
  %4 = getelementptr inbounds nuw %"class.duckdb_re2::StringPiece", ptr %3, i32 0, i32 1
  %5 = load i64, ptr %4, align 8, !tbaa !178
  ret i64 %5
}

; Function Attrs: mustprogress nounwind uwtable
define linkonce_odr hidden noundef ptr @_ZNK10duckdb_re211StringPiece4dataEv(ptr noundef nonnull align 8 dereferenceable(16) %0) #1 comdat align 2 {
  %2 = alloca ptr, align 8
  store ptr %0, ptr %2, align 8, !tbaa !123
  %3 = load ptr, ptr %2, align 8
  %4 = getelementptr inbounds nuw %"class.duckdb_re2::StringPiece", ptr %3, i32 0, i32 0
  %5 = load ptr, ptr %4, align 8, !tbaa !174
  ret ptr %5
}

; Function Attrs: inlinehint mustprogress uwtable
define internal noundef ptr @_ZN10duckdb_re2L6EndPtrERKNS_11StringPieceE(ptr noundef nonnull align 8 dereferenceable(16) %0) #6 {
  %2 = alloca ptr, align 8
  store ptr %0, ptr %2, align 8, !tbaa !123
  %3 = load ptr, ptr %2, align 8, !tbaa !123
  %4 = call noundef ptr @_ZNK10duckdb_re211StringPiece4dataEv(ptr noundef nonnull align 8 dereferenceable(16) %3)
  %5 = load ptr, ptr %2, align 8, !tbaa !123
  %6 = call noundef i64 @_ZNK10duckdb_re211StringPiece4sizeEv(ptr noundef nonnull align 8 dereferenceable(16) %5)
  %7 = getelementptr inbounds nuw i8, ptr %4, i64 %6
  ret ptr %7
}

; Function Attrs: mustprogress nounwind uwtable
define linkonce_odr hidden void @_ZN10duckdb_re211StringPieceC2Ev(ptr noundef nonnull align 8 dereferenceable(16) %0) unnamed_addr #1 comdat align 2 {
  %2 = alloca ptr, align 8
  store ptr %0, ptr %2, align 8, !tbaa !123
  %3 = load ptr, ptr %2, align 8
  %4 = getelementptr inbounds nuw %"class.duckdb_re2::StringPiece", ptr %3, i32 0, i32 0
  store ptr null, ptr %4, align 8, !tbaa !174
  %5 = getelementptr inbounds nuw %"class.duckdb_re2::StringPiece", ptr %3, i32 0, i32 1
  store i64 0, ptr %5, align 8, !tbaa !178
  ret void
}

; Function Attrs: mustprogress uwtable
define hidden noundef zeroext i1 @_ZN10duckdb_re24Prog9SearchNFAERKNS_11StringPieceES3_NS0_6AnchorENS0_9MatchKindEPS1_i(ptr noundef nonnull align 8 dereferenceable(432) %0, ptr noundef nonnull align 8 dereferenceable(16) %1, ptr noundef nonnull align 8 dereferenceable(16) %2, i32 noundef %3, i32 noundef %4, ptr noundef %5, i32 noundef %6) #0 align 2 personality ptr @__gxx_personality_v0 {
  %8 = alloca i1, align 1
  %9 = alloca ptr, align 8
  %10 = alloca ptr, align 8
  %11 = alloca ptr, align 8
  %12 = alloca i32, align 4
  %13 = alloca i32, align 4
  %14 = alloca ptr, align 8
  %15 = alloca i32, align 4
  %16 = alloca %"class.duckdb_re2::NFA", align 8
  %17 = alloca %"class.duckdb_re2::StringPiece", align 8
  %18 = alloca ptr, align 8
  %19 = alloca i32, align 4
  %20 = alloca i32, align 4
  store ptr %0, ptr %9, align 8, !tbaa !8
  store ptr %1, ptr %10, align 8, !tbaa !123
  store ptr %2, ptr %11, align 8, !tbaa !123
  store i32 %3, ptr %12, align 4, !tbaa !184
  store i32 %4, ptr %13, align 4, !tbaa !186
  store ptr %5, ptr %14, align 8, !tbaa !123
  store i32 %6, ptr %15, align 4, !tbaa !64
  %21 = load ptr, ptr %9, align 8
  call void @llvm.lifetime.start.p0(i64 240, ptr %16) #17
  call void @_ZN10duckdb_re23NFAC1EPNS_4ProgE(ptr noundef nonnull align 8 dereferenceable(233) %16, ptr noundef %21)
  call void @llvm.lifetime.start.p0(i64 16, ptr %17) #17
  invoke void @_ZN10duckdb_re211StringPieceC2Ev(ptr noundef nonnull align 8 dereferenceable(16) %17)
          to label %22 unwind label %29

22:                                               ; preds = %7
  %23 = load i32, ptr %13, align 4, !tbaa !186
  %24 = icmp eq i32 %23, 2
  br i1 %24, label %25, label %34

25:                                               ; preds = %22
  store i32 1, ptr %12, align 4, !tbaa !184
  %26 = load i32, ptr %15, align 4, !tbaa !64
  %27 = icmp eq i32 %26, 0
  br i1 %27, label %28, label %33

28:                                               ; preds = %25
  store ptr %17, ptr %14, align 8, !tbaa !123
  store i32 1, ptr %15, align 4, !tbaa !64
  br label %33

29:                                               ; preds = %53, %49, %34, %7
  %30 = landingpad { ptr, i32 }
          cleanup
  %31 = extractvalue { ptr, i32 } %30, 0
  store ptr %31, ptr %18, align 8
  %32 = extractvalue { ptr, i32 } %30, 1
  store i32 %32, ptr %19, align 4
  call void @llvm.lifetime.end.p0(i64 16, ptr %17) #17
  call void @_ZN10duckdb_re23NFAD1Ev(ptr noundef nonnull align 8 dereferenceable(233) %16) #17
  call void @llvm.lifetime.end.p0(i64 240, ptr %16) #17
  br label %62

33:                                               ; preds = %28, %25
  br label %34

34:                                               ; preds = %33, %22
  %35 = load ptr, ptr %10, align 8, !tbaa !123
  %36 = load ptr, ptr %11, align 8, !tbaa !123
  %37 = load i32, ptr %12, align 4, !tbaa !184
  %38 = icmp eq i32 %37, 1
  %39 = load i32, ptr %13, align 4, !tbaa !186
  %40 = icmp ne i32 %39, 0
  %41 = load ptr, ptr %14, align 8, !tbaa !123
  %42 = load i32, ptr %15, align 4, !tbaa !64
  %43 = invoke noundef zeroext i1 @_ZN10duckdb_re23NFA6SearchERKNS_11StringPieceES3_bbPS1_i(ptr noundef nonnull align 8 dereferenceable(233) %16, ptr noundef nonnull align 8 dereferenceable(16) %35, ptr noundef nonnull align 8 dereferenceable(16) %36, i1 noundef zeroext %38, i1 noundef zeroext %40, ptr noundef %41, i32 noundef %42)
          to label %44 unwind label %29

44:                                               ; preds = %34
  br i1 %43, label %46, label %45

45:                                               ; preds = %44
  store i1 false, ptr %8, align 1
  store i32 1, ptr %20, align 4
  br label %60

46:                                               ; preds = %44
  %47 = load i32, ptr %13, align 4, !tbaa !186
  %48 = icmp eq i32 %47, 2
  br i1 %48, label %49, label %59

49:                                               ; preds = %46
  %50 = load ptr, ptr %14, align 8, !tbaa !123
  %51 = getelementptr inbounds %"class.duckdb_re2::StringPiece", ptr %50, i64 0
  %52 = invoke noundef ptr @_ZN10duckdb_re2L6EndPtrERKNS_11StringPieceE(ptr noundef nonnull align 8 dereferenceable(16) %51)
          to label %53 unwind label %29

53:                                               ; preds = %49
  %54 = load ptr, ptr %10, align 8, !tbaa !123
  %55 = invoke noundef ptr @_ZN10duckdb_re2L6EndPtrERKNS_11StringPieceE(ptr noundef nonnull align 8 dereferenceable(16) %54)
          to label %56 unwind label %29

56:                                               ; preds = %53
  %57 = icmp ne ptr %52, %55
  br i1 %57, label %58, label %59

58:                                               ; preds = %56
  store i1 false, ptr %8, align 1
  store i32 1, ptr %20, align 4
  br label %60

59:                                               ; preds = %56, %46
  store i1 true, ptr %8, align 1
  store i32 1, ptr %20, align 4
  br label %60

60:                                               ; preds = %59, %58, %45
  call void @llvm.lifetime.end.p0(i64 16, ptr %17) #17
  call void @_ZN10duckdb_re23NFAD1Ev(ptr noundef nonnull align 8 dereferenceable(233) %16) #17
  call void @llvm.lifetime.end.p0(i64 240, ptr %16) #17
  %61 = load i1, ptr %8, align 1
  ret i1 %61

62:                                               ; preds = %29
  %63 = load ptr, ptr %18, align 8
  %64 = load i32, ptr %19, align 4
  %65 = insertvalue { ptr, i32 } poison, ptr %63, 0
  %66 = insertvalue { ptr, i32 } %65, i32 %64, 1
  resume { ptr, i32 } %66
}