; Function Attrs: mustprogress uwtable
define hidden noundef zeroext i1 @_ZN10duckdb_re24Prog9SearchNFAERKNS_11StringPieceES3_NS0_6AnchorENS0_9MatchKindEPS1_i(ptr noundef nonnull align 8 dereferenceable(432) %0, ptr noundef nonnull readonly align 8 captures(none) dereferenceable(16) %1, ptr noundef nonnull readonly align 8 captures(none) dereferenceable(16) %2, i32 noundef %3, i32 noundef %4, ptr noundef captures(none) %5, i32 noundef %6) local_unnamed_addr #0 align 2 personality ptr @__gxx_personality_v0 {
  %8 = alloca %"class.duckdb_re2::NFA", align 8
  %9 = alloca %"class.duckdb_re2::StringPiece", align 8
  call void @llvm.lifetime.start.p0(i64 240, ptr nonnull %8) #19
  call void @_ZN10duckdb_re23NFAC2EPNS_4ProgE(ptr noundef nonnull align 8 dereferenceable(233) %8, ptr noundef nonnull %0)
  call void @llvm.lifetime.start.p0(i64 16, ptr nonnull %9) #19
  call void @llvm.memset.p0.i64(ptr noundef nonnull align 8 dereferenceable(16) %9, i8 0, i64 16, i1 false)
  %10 = icmp eq i32 %4, 2
  %11 = icmp eq i32 %6, 0
  %spec.select = select i1 %11, ptr %9, ptr %5
  %spec.select20 = call i32 @llvm.umax.i32(i32 %6, i32 1)
  %.016 = select i1 %10, ptr %spec.select, ptr %5
  %.015 = select i1 %10, i32 %spec.select20, i32 %6
  %12 = icmp eq i32 %3, 1
  %13 = or i1 %12, %10
  %14 = icmp ne i32 %4, 0
  %15 = invoke noundef zeroext i1 @_ZN10duckdb_re23NFA6SearchERKNS_11StringPieceES3_bbPS1_i(ptr noundef nonnull align 8 dereferenceable(233) %8, ptr noundef nonnull align 8 dereferenceable(16) %1, ptr noundef nonnull align 8 dereferenceable(16) %2, i1 noundef zeroext %13, i1 noundef zeroext %14, ptr noundef %.016, i32 noundef %.015)
          to label %18 unwind label %16

16:                                               ; preds = %7
  %17 = landingpad { ptr, i32 }
          cleanup
  call void @llvm.lifetime.end.p0(i64 16, ptr nonnull %9) #19
  call void @_ZN10duckdb_re23NFAD2Ev(ptr noundef nonnull align 8 dereferenceable(233) %8) #19
  call void @llvm.lifetime.end.p0(i64 240, ptr nonnull %8) #19
  resume { ptr, i32 } %17

18:                                               ; preds = %7
  br i1 %15, label %19, label %25

19:                                               ; preds = %18
  br i1 %10, label %20, label %24

20:                                               ; preds = %19
  %.016.val = load ptr, ptr %spec.select, align 8, !tbaa !162
  %spec.select.sroa.sel.v.sroa.sel.v = select i1 %11, ptr %9, ptr %5
  %spec.select.sroa.sel.v.sroa.sel = getelementptr i8, ptr %spec.select.sroa.sel.v.sroa.sel.v, i64 8
  %.016.val22 = load i64, ptr %spec.select.sroa.sel.v.sroa.sel, align 8, !tbaa !164
  %21 = getelementptr inbounds nuw i8, ptr %.016.val, i64 %.016.val22
  %.val = load ptr, ptr %1, align 8, !tbaa !162
  %22 = getelementptr inbounds nuw i8, ptr %1, i64 8
  %.val21 = load i64, ptr %22, align 8, !tbaa !164
  %23 = getelementptr inbounds nuw i8, ptr %.val, i64 %.val21
  %.not = icmp eq ptr %21, %23
  br i1 %.not, label %24, label %25

24:                                               ; preds = %20, %19
  br label %25

25:                                               ; preds = %20, %18, %24
  %.0 = phi i1 [ true, %24 ], [ false, %18 ], [ false, %20 ]
  call void @llvm.lifetime.end.p0(i64 16, ptr nonnull %9) #19
  call void @_ZN10duckdb_re23NFAD2Ev(ptr noundef nonnull align 8 dereferenceable(233) %8) #19
  call void @llvm.lifetime.end.p0(i64 240, ptr nonnull %8) #19
  ret i1 %.0
}